target datalayout = "e-m:e-p270:32:32-p271:32:32-p272:64:64-i64:64-i128:128-f80:128-n8:16:32:64-S128"
target triple = "x86_64-pc-linux-gnu"

%class.ImageViewer = type { %class.QMainWindow, ptr, ptr, ptr, ptr, double, ptr, ptr, ptr, ptr, ptr, ptr, ptr, ptr, ptr, ptr }
%class.QMainWindow = type { %class.QWidget }
%class.QWidget = type { %class.QObject, %class.QPaintDevice.base, ptr }
%class.QObject = type { ptr, %class.QScopedPointer }
%class.QScopedPointer = type { ptr }
%class.QPaintDevice.base = type <{ ptr, i16 }>
%class.QSize = type { i32, i32 }
%class.QPixmap = type { %class.QPaintDevice.base, %class.QExplicitlySharedDataPointer }
%class.QExplicitlySharedDataPointer = type { ptr }
%class.anon = type { ptr }

; Function Attrs: noinline noreturn nounwind uwtable
define linkonce_odr hidden void @__clang_call_terminate(ptr noundef %0) #11 comdat {
  %2 = call ptr @__cxa_begin_catch(ptr %0) #12
  call void @_ZSt9terminatev() #15
  unreachable
}

; Function Attrs: inlinehint mustprogress nounwind uwtable
define linkonce_odr void @_ZN5QSizeC2Eii(ptr noundef nonnull align 4 dereferenceable(8) %0, i32 noundef %1, i32 noundef %2) unnamed_addr #1 comdat align 2 {
  %4 = alloca ptr, align 8
  %5 = alloca i32, align 4
  %6 = alloca i32, align 4
  store ptr %0, ptr %4, align 8, !tbaa !86
  store i32 %1, ptr %5, align 4, !tbaa !49
  store i32 %2, ptr %6, align 4, !tbaa !49
  %7 = load ptr, ptr %4, align 8
  %8 = getelementptr inbounds nuw %class.QSize, ptr %7, i32 0, i32 0
  %9 = load i32, ptr %5, align 4, !tbaa !49
  store i32 %9, ptr %8, align 4, !tbaa !105
  %10 = getelementptr inbounds nuw %class.QSize, ptr %7, i32 0, i32 1
  %11 = load i32, ptr %6, align 4, !tbaa !49
  store i32 %11, ptr %10, align 4, !tbaa !107
  ret void
}

; Function Attrs: inlinehint mustprogress nounwind uwtable
define linkonce_odr noundef i32 @_Z6qRoundd(double noundef %0) #1 comdat {
  %2 = alloca double, align 8
  store double %0, ptr %2, align 8, !tbaa !69
  %3 = load double, ptr %2, align 8, !tbaa !69
  %4 = load double, ptr %2, align 8, !tbaa !69
  %5 = call double @llvm.copysign.f64(double 5.000000e-01, double %4)
  %6 = fadd double %3, %5
  %7 = fptosi double %6 to i32
  ret i32 %7
}

; Function Attrs: inlinehint mustprogress nounwind uwtable
define linkonce_odr i64 @_ZmlRK5QSized(ptr noundef nonnull align 4 dereferenceable(8) %0, double noundef %1) #1 comdat personality ptr @__gxx_personality_v0 {
  %3 = alloca %class.QSize, align 4
  %4 = alloca ptr, align 8
  %5 = alloca double, align 8
  store ptr %0, ptr %4, align 8, !tbaa !86
  store double %1, ptr %5, align 8, !tbaa !69
  %6 = load ptr, ptr %4, align 8, !tbaa !86
  %7 = getelementptr inbounds nuw %class.QSize, ptr %6, i32 0, i32 0
  %8 = load i32, ptr %7, align 4, !tbaa !105
  %9 = sitofp i32 %8 to double
  %10 = load double, ptr %5, align 8, !tbaa !69
  %11 = fmul double %9, %10
  %12 = invoke noundef i32 @_Z6qRoundd(double noundef %11)
          to label %13 unwind label %23

13:                                               ; preds = %2
  %14 = load ptr, ptr %4, align 8, !tbaa !86
  %15 = getelementptr inbounds nuw %class.QSize, ptr %14, i32 0, i32 1
  %16 = load i32, ptr %15, align 4, !tbaa !107
  %17 = sitofp i32 %16 to double
  %18 = load double, ptr %5, align 8, !tbaa !69
  %19 = fmul double %17, %18
  %20 = invoke noundef i32 @_Z6qRoundd(double noundef %19)
          to label %21 unwind label %23

21:                                               ; preds = %13
  call void @_ZN5QSizeC2Eii(ptr noundef nonnull align 4 dereferenceable(8) %3, i32 noundef %12, i32 noundef %20) #12
  %22 = load i64, ptr %3, align 4
  ret i64 %22

23:                                               ; preds = %13, %2
  %24 = landingpad { ptr, i32 }
          catch ptr null
  %25 = extractvalue { ptr, i32 } %24, 0
  call void @__clang_call_terminate(ptr %25) #15
  unreachable
}

; Function Attrs: mustprogress uwtable
define linkonce_odr void @_ZNK6QLabel6pixmapEN2Qt21ReturnByValueConstantE(ptr dead_on_unwind noalias writable sret(%class.QPixmap) align 8 %0, ptr noundef nonnull align 8 dereferenceable(40) %1, i32 noundef %2) #0 comdat align 2 {
  %4 = alloca ptr, align 8
  %5 = alloca ptr, align 8
  %6 = alloca i32, align 4
  store ptr %0, ptr %4, align 8
  store ptr %1, ptr %5, align 8, !tbaa !110
  store i32 %2, ptr %6, align 4, !tbaa !111
  %7 = load ptr, ptr %5, align 8
  call void @_ZNK6QLabel6pixmapEv(ptr dead_on_unwind writable sret(%class.QPixmap) align 8 %0, ptr noundef nonnull align 8 dereferenceable(40) %7)
  ret void
}

; Function Attrs: mustprogress uwtable
define void @_ZN11ImageViewer15adjustScrollBarEP10QScrollBard(ptr noundef nonnull align 8 dereferenceable(160) %0, ptr noundef %1, double noundef %2) #0 align 2 {
  %4 = alloca ptr, align 8
  %5 = alloca ptr, align 8
  %6 = alloca double, align 8
  store ptr %0, ptr %4, align 8, !tbaa !3
  store ptr %1, ptr %5, align 8, !tbaa !88
  store double %2, ptr %6, align 8, !tbaa !69
  %7 = load ptr, ptr %5, align 8, !tbaa !88
  %8 = load double, ptr %6, align 8, !tbaa !69
  %9 = load ptr, ptr %5, align 8, !tbaa !88
  %10 = call noundef i32 @_ZNK15QAbstractSlider5valueEv(ptr noundef nonnull align 8 dereferenceable(40) %9)
  %11 = sitofp i32 %10 to double
  %12 = load double, ptr %6, align 8, !tbaa !69
  %13 = fsub double %12, 1.000000e+00
  %14 = load ptr, ptr %5, align 8, !tbaa !88
  %15 = call noundef i32 @_ZNK15QAbstractSlider8pageStepEv(ptr noundef nonnull align 8 dereferenceable(40) %14)
  %16 = sitofp i32 %15 to double
  %17 = fmul double %13, %16
  %18 = fdiv double %17, 2.000000e+00
  %19 = call double @llvm.fmuladd.f64(double %8, double %11, double %18)
  %20 = fptosi double %19 to i32
  call void @_ZN15QAbstractSlider8setValueEi(ptr noundef nonnull align 8 dereferenceable(40) %7, i32 noundef %20)
  ret void
}

; Function Attrs: inlinehint mustprogress nounwind uwtable
define linkonce_odr i64 @_ZmldRK5QSize(double noundef %0, ptr noundef nonnull align 4 dereferenceable(8) %1) #1 comdat {
  %3 = alloca %class.QSize, align 4
  %4 = alloca double, align 8
  %5 = alloca ptr, align 8
  store double %0, ptr %4, align 8, !tbaa !69
  store ptr %1, ptr %5, align 8, !tbaa !86
  %6 = load ptr, ptr %5, align 8, !tbaa !86
  %7 = load double, ptr %4, align 8, !tbaa !69
  %8 = call i64 @_ZmlRK5QSized(ptr noundef nonnull align 4 dereferenceable(8) %6, double noundef %7) #12
  store i64 %8, ptr %3, align 4
  %9 = load i64, ptr %3, align 4
  ret i64 %9
}

; Function Attrs: inlinehint mustprogress uwtable
define internal void @"_ZZN11ImageViewer10scaleImageEdENK3$_0clEv"(ptr dead_on_unwind noalias writable sret(%class.QPixmap) align 8 %0, ptr noundef nonnull align 8 dereferenceable(8) %1) #5 align 2 {
  %3 = alloca ptr, align 8
  %4 = alloca ptr, align 8
  store ptr %0, ptr %3, align 8
  store ptr %1, ptr %4, align 8, !tbaa !83
  %5 = load ptr, ptr %4, align 8
  %6 = getelementptr inbounds nuw %class.anon, ptr %5, i32 0, i32 0
  %7 = load ptr, ptr %6, align 8, !tbaa !70
  %8 = getelementptr inbounds nuw %class.ImageViewer, ptr %7, i32 0, i32 3
  %9 = load ptr, ptr %8, align 8, !tbaa !10
  call void @_ZNK6QLabel6pixmapEN2Qt21ReturnByValueConstantE(ptr dead_on_unwind writable sret(%class.QPixmap) align 8 %0, ptr noundef nonnull align 8 dereferenceable(40) %9, i32 noundef 0)
  ret void
}

; Function Attrs: mustprogress uwtable
define void @_ZN11ImageViewer10scaleImageEd(ptr noundef nonnull align 8 dereferenceable(160) %0, double noundef %1) #0 align 2 personality ptr @__gxx_personality_v0 {
  %3 = alloca ptr, align 8
  %4 = alloca double, align 8
  %5 = alloca %class.anon, align 8
  %6 = alloca %class.QSize, align 4
  %7 = alloca %class.QSize, align 4
  %8 = alloca %class.QPixmap, align 8
  %9 = alloca ptr, align 8
  %10 = alloca i32, align 4
  store ptr %0, ptr %3, align 8, !tbaa !3
  store double %1, ptr %4, align 8, !tbaa !69
  %11 = load ptr, ptr %3, align 8
  call void @llvm.lifetime.start.p0(i64 8, ptr %5) #12
  %12 = getelementptr inbounds nuw %class.anon, ptr %5, i32 0, i32 0
  store ptr %11, ptr %12, align 8, !tbaa !70
  %13 = load double, ptr %4, align 8, !tbaa !69
  %14 = getelementptr inbounds nuw %class.ImageViewer, ptr %11, i32 0, i32 5
  %15 = load double, ptr %14, align 8, !tbaa !60
  %16 = fmul double %15, %13
  store double %16, ptr %14, align 8, !tbaa !60
  %17 = getelementptr inbounds nuw %class.ImageViewer, ptr %11, i32 0, i32 3
  %18 = load ptr, ptr %17, align 8, !tbaa !10
  call void @llvm.lifetime.start.p0(i64 8, ptr %6) #12
  %19 = getelementptr inbounds nuw %class.ImageViewer, ptr %11, i32 0, i32 5
  %20 = load double, ptr %19, align 8, !tbaa !60
  call void @llvm.lifetime.start.p0(i64 8, ptr %7) #12
  call void @llvm.lifetime.start.p0(i64 24, ptr %8) #12
  call void @"_ZZN11ImageViewer10scaleImageEdENK3$_0clEv"(ptr dead_on_unwind writable sret(%class.QPixmap) align 8 %8, ptr noundef nonnull align 8 dereferenceable(8) %5)
  %21 = invoke i64 @_ZNK7QPixmap4sizeEv(ptr noundef nonnull align 8 dereferenceable(24) %8)
          to label %22 unwind label %43

22:                                               ; preds = %2
  store i64 %21, ptr %7, align 4
  %23 = call i64 @_ZmldRK5QSize(double noundef %20, ptr noundef nonnull align 4 dereferenceable(8) %7) #12
  store i64 %23, ptr %6, align 4
  invoke void @_ZN7QWidget6resizeERK5QSize(ptr noundef nonnull align 8 dereferenceable(40) %18, ptr noundef nonnull align 4 dereferenceable(8) %6)
          to label %24 unwind label %43

24:                                               ; preds = %22
  call void @_ZN7QPixmapD1Ev(ptr noundef nonnull align 8 dereferenceable(24) %8) #12
  call void @llvm.lifetime.end.p0(i64 24, ptr %8) #12
  call void @llvm.lifetime.end.p0(i64 8, ptr %7) #12
  call void @llvm.lifetime.end.p0(i64 8, ptr %6) #12
  %25 = getelementptr inbounds nuw %class.ImageViewer, ptr %11, i32 0, i32 4
  %26 = load ptr, ptr %25, align 8, !tbaa !27
  %27 = call noundef ptr @_ZNK19QAbstractScrollArea19horizontalScrollBarEv(ptr noundef nonnull align 8 dereferenceable(40) %26)
  %28 = load double, ptr %4, align 8, !tbaa !69
  call void @_ZN11ImageViewer15adjustScrollBarEP10QScrollBard(ptr noundef nonnull align 8 dereferenceable(160) %11, ptr noundef %27, double noundef %28)
  %29 = getelementptr inbounds nuw %class.ImageViewer, ptr %11, i32 0, i32 4
  %30 = load ptr, ptr %29, align 8, !tbaa !27
  %31 = call noundef ptr @_ZNK19QAbstractScrollArea17verticalScrollBarEv(ptr noundef nonnull align 8 dereferenceable(40) %30)
  %32 = load double, ptr %4, align 8, !tbaa !69
  call void @_ZN11ImageViewer15adjustScrollBarEP10QScrollBard(ptr noundef nonnull align 8 dereferenceable(160) %11, ptr noundef %31, double noundef %32)
  %33 = getelementptr inbounds nuw %class.ImageViewer, ptr %11, i32 0, i32 9
  %34 = load ptr, ptr %33, align 8, !tbaa !40
  %35 = getelementptr inbounds nuw %class.ImageViewer, ptr %11, i32 0, i32 5
  %36 = load double, ptr %35, align 8, !tbaa !60
  %37 = fcmp olt double %36, 3.000000e+00
  call void @_ZN7QAction10setEnabledEb(ptr noundef nonnull align 8 dereferenceable(16) %34, i1 noundef zeroext %37)
  %38 = getelementptr inbounds nuw %class.ImageViewer, ptr %11, i32 0, i32 10
  %39 = load ptr, ptr %38, align 8, !tbaa !41
  %40 = getelementptr inbounds nuw %class.ImageViewer, ptr %11, i32 0, i32 5
  %41 = load double, ptr %40, align 8, !tbaa !60
  %42 = fcmp ogt double %41, 3.330000e-01
  call void @_ZN7QAction10setEnabledEb(ptr noundef nonnull align 8 dereferenceable(16) %39, i1 noundef zeroext %42)
  call void @llvm.lifetime.end.p0(i64 8, ptr %5) #12
  ret void

43:                                               ; preds = %22, %2
  %44 = landingpad { ptr, i32 }
          cleanup
  %45 = extractvalue { ptr, i32 } %44, 0
  store ptr %45, ptr %9, align 8
  %46 = extractvalue { ptr, i32 } %44, 1
  store i32 %46, ptr %10, align 4
  call void @_ZN7QPixmapD1Ev(ptr noundef nonnull align 8 dereferenceable(24) %8) #12
  call void @llvm.lifetime.end.p0(i64 24, ptr %8) #12
  call void @llvm.lifetime.end.p0(i64 8, ptr %7) #12
  call void @llvm.lifetime.end.p0(i64 8, ptr %6) #12
  call void @llvm.lifetime.end.p0(i64 8, ptr %5) #12
  br label %47

47:                                               ; preds = %43
  %48 = load ptr, ptr %9, align 8
  %49 = load i32, ptr %10, align 4
  %50 = insertvalue { ptr, i32 } poison, ptr %48, 0
  %51 = insertvalue { ptr, i32 } %50, i32 %49, 1
  resume { ptr, i32 } %51
}