; Function Attrs: mustprogress uwtable
define void @_ZN11ImageViewer10scaleImageEd(ptr noundef nonnull align 8 captures(none) dereferenceable(160) %0, double noundef %1) local_unnamed_addr #0 align 2 personality ptr @__gxx_personality_v0 {
  %3 = alloca %class.QSize, align 8
  %4 = alloca %class.QPixmap, align 8
  %5 = getelementptr inbounds nuw i8, ptr %0, i64 72
  %6 = load double, ptr %5, align 8, !tbaa !89
  %7 = fmul double %1, %6
  store double %7, ptr %5, align 8, !tbaa !89
  %8 = getelementptr inbounds nuw i8, ptr %0, i64 56
  %9 = load ptr, ptr %8, align 8, !tbaa !6
  call void @llvm.lifetime.start.p0(i64 8, ptr nonnull %3) #9
  call void @llvm.lifetime.start.p0(i64 24, ptr nonnull %4) #9
  call void @_ZNK6QLabel6pixmapEv(ptr dead_on_unwind nonnull writable sret(%class.QPixmap) align 8 %4, ptr noundef nonnull align 8 dereferenceable(40) %9)
  %10 = invoke i64 @_ZNK7QPixmap4sizeEv(ptr noundef nonnull align 8 dereferenceable(24) %4)
          to label %11 unwind label %53

11:                                               ; preds = %2
  %.sroa.0.0.extract.trunc = trunc i64 %10 to i32
  %.sroa.5.0.extract.shift = lshr i64 %10, 32
  %.sroa.5.0.extract.trunc = trunc nuw i64 %.sroa.5.0.extract.shift to i32
  %12 = sitofp i32 %.sroa.0.0.extract.trunc to double
  %13 = fmul double %7, %12
  %14 = call double @llvm.copysign.f64(double 5.000000e-01, double %13)
  %15 = fadd double %13, %14
  %16 = fptosi double %15 to i32
  %17 = sitofp i32 %.sroa.5.0.extract.trunc to double
  %18 = fmul double %7, %17
  %19 = call double @llvm.copysign.f64(double 5.000000e-01, double %18)
  %20 = fadd double %18, %19
  %21 = fptosi double %20 to i32
  %.sroa.2.0.insert.ext.i.i = zext i32 %21 to i64
  %.sroa.2.0.insert.shift.i.i = shl nuw i64 %.sroa.2.0.insert.ext.i.i, 32
  %.sroa.0.0.insert.ext.i.i = zext i32 %16 to i64
  %.sroa.0.0.insert.insert.i.i = or disjoint i64 %.sroa.2.0.insert.shift.i.i, %.sroa.0.0.insert.ext.i.i
  store i64 %.sroa.0.0.insert.insert.i.i, ptr %3, align 8
  invoke void @_ZN7QWidget6resizeERK5QSize(ptr noundef nonnull align 8 dereferenceable(40) %9, ptr noundef nonnull align 4 dereferenceable(8) %3)
          to label %22 unwind label %53

22:                                               ; preds = %11
  call void @_ZN7QPixmapD1Ev(ptr noundef nonnull align 8 dereferenceable(24) %4) #9
  call void @llvm.lifetime.end.p0(i64 24, ptr nonnull %4) #9
  call void @llvm.lifetime.end.p0(i64 8, ptr nonnull %3) #9
  %23 = getelementptr inbounds nuw i8, ptr %0, i64 64
  %24 = load ptr, ptr %23, align 8, !tbaa !25
  %25 = call noundef ptr @_ZNK19QAbstractScrollArea19horizontalScrollBarEv(ptr noundef nonnull align 8 dereferenceable(40) %24)
  %26 = call noundef i32 @_ZNK15QAbstractSlider5valueEv(ptr noundef nonnull align 8 dereferenceable(40) %25)
  %27 = sitofp i32 %26 to double
  %28 = fadd double %1, -1.000000e+00
  %29 = call noundef i32 @_ZNK15QAbstractSlider8pageStepEv(ptr noundef nonnull align 8 dereferenceable(40) %25)
  %30 = sitofp i32 %29 to double
  %31 = fmul double %28, %30
  %32 = fmul double %31, 5.000000e-01
  %33 = call double @llvm.fmuladd.f64(double %1, double %27, double %32)
  %34 = fptosi double %33 to i32
  call void @_ZN15QAbstractSlider8setValueEi(ptr noundef nonnull align 8 dereferenceable(40) %25, i32 noundef %34)
  %35 = load ptr, ptr %23, align 8, !tbaa !25
  %36 = call noundef ptr @_ZNK19QAbstractScrollArea17verticalScrollBarEv(ptr noundef nonnull align 8 dereferenceable(40) %35)
  %37 = call noundef i32 @_ZNK15QAbstractSlider5valueEv(ptr noundef nonnull align 8 dereferenceable(40) %36)
  %38 = sitofp i32 %37 to double
  %39 = call noundef i32 @_ZNK15QAbstractSlider8pageStepEv(ptr noundef nonnull align 8 dereferenceable(40) %36)
  %40 = sitofp i32 %39 to double
  %41 = fmul double %28, %40
  %42 = fmul double %41, 5.000000e-01
  %43 = call double @llvm.fmuladd.f64(double %1, double %38, double %42)
  %44 = fptosi double %43 to i32
  call void @_ZN15QAbstractSlider8setValueEi(ptr noundef nonnull align 8 dereferenceable(40) %36, i32 noundef %44)
  %45 = getelementptr inbounds nuw i8, ptr %0, i64 104
  %46 = load ptr, ptr %45, align 8, !tbaa !58
  %47 = load double, ptr %5, align 8, !tbaa !89
  %48 = fcmp olt double %47, 3.000000e+00
  call void @_ZN7QAction10setEnabledEb(ptr noundef nonnull align 8 dereferenceable(16) %46, i1 noundef zeroext %48)
  %49 = getelementptr inbounds nuw i8, ptr %0, i64 112
  %50 = load ptr, ptr %49, align 8, !tbaa !62
  %51 = load double, ptr %5, align 8, !tbaa !89
  %52 = fcmp ogt double %51, 3.330000e-01
  call void @_ZN7QAction10setEnabledEb(ptr noundef nonnull align 8 dereferenceable(16) %50, i1 noundef zeroext %52)
  ret void

53:                                               ; preds = %11, %2
  %54 = landingpad { ptr, i32 }
          cleanup
  call void @_ZN7QPixmapD1Ev(ptr noundef nonnull align 8 dereferenceable(24) %4) #9
  call void @llvm.lifetime.end.p0(i64 24, ptr nonnull %4) #9
  call void @llvm.lifetime.end.p0(i64 8, ptr nonnull %3) #9
  resume { ptr, i32 } %54
}